target datalayout = "e-m:e-p270:32:32-p271:32:32-p272:64:64-i64:64-i128:128-f80:128-n8:16:32:64-S128"
target triple = "x86_64-pc-linux-gnu"

%struct.alts_iovec_record_protocol = type { ptr, ptr, i64, i8, i8 }

@.str.16 = private unnamed_addr constant [64 x i8] c"Invalid nullptr arguments to alts_iovec_record_protocol create.\00", align 1

; Function Attrs: mustprogress uwtable
define internal void @_ZL20maybe_copy_error_msgPKcPPc(ptr noundef %0, ptr noundef %1) #2 {
  %3 = alloca ptr, align 8
  %4 = alloca ptr, align 8
  store ptr %0, ptr %3, align 8, !tbaa !32
  store ptr %1, ptr %4, align 8, !tbaa !17
  %5 = load ptr, ptr %4, align 8, !tbaa !17
  %6 = icmp ne ptr %5, null
  br i1 %6, label %7, label %22

7:                                                ; preds = %2
  %8 = load ptr, ptr %3, align 8, !tbaa !32
  %9 = icmp ne ptr %8, null
  br i1 %9, label %10, label %22

10:                                               ; preds = %7
  %11 = load ptr, ptr %3, align 8, !tbaa !32
  %12 = call i64 @strlen(ptr noundef %11) #9
  %13 = add i64 %12, 1
  %14 = call ptr @gpr_malloc(i64 noundef %13)
  %15 = load ptr, ptr %4, align 8, !tbaa !17
  store ptr %14, ptr %15, align 8, !tbaa !32
  %16 = load ptr, ptr %4, align 8, !tbaa !17
  %17 = load ptr, ptr %16, align 8, !tbaa !32
  %18 = load ptr, ptr %3, align 8, !tbaa !32
  %19 = load ptr, ptr %3, align 8, !tbaa !32
  %20 = call i64 @strlen(ptr noundef %19) #9
  %21 = add i64 %20, 1
  call void @llvm.memcpy.p0.p0.i64(ptr align 1 %17, ptr align 1 %18, i64 %21, i1 false)
  br label %22

22:                                               ; preds = %10, %7, %2
  ret void
}

; Function Attrs: mustprogress uwtable
define noundef i32 @_Z33alts_iovec_record_protocol_createP17gsec_aead_cryptermbbbPP26alts_iovec_record_protocolPPc(ptr noundef %0, i64 noundef %1, i1 noundef zeroext %2, i1 noundef zeroext %3, i1 noundef zeroext %4, ptr noundef %5, ptr noundef %6) #2 {
  %8 = alloca i32, align 4
  %9 = alloca ptr, align 8
  %10 = alloca i64, align 8
  %11 = alloca i8, align 1
  %12 = alloca i8, align 1
  %13 = alloca i8, align 1
  %14 = alloca ptr, align 8
  %15 = alloca ptr, align 8
  %16 = alloca ptr, align 8
  %17 = alloca i64, align 8
  %18 = alloca i32, align 4
  %19 = alloca i32, align 4
  store ptr %0, ptr %9, align 8, !tbaa !41
  store i64 %1, ptr %10, align 8, !tbaa !14
  %20 = zext i1 %2 to i8
  store i8 %20, ptr %11, align 1, !tbaa !38
  %21 = zext i1 %3 to i8
  store i8 %21, ptr %12, align 1, !tbaa !38
  %22 = zext i1 %4 to i8
  store i8 %22, ptr %13, align 1, !tbaa !38
  store ptr %5, ptr %14, align 8, !tbaa !42
  store ptr %6, ptr %15, align 8, !tbaa !17
  %23 = load ptr, ptr %9, align 8, !tbaa !41
  %24 = icmp eq ptr %23, null
  br i1 %24, label %28, label %25

25:                                               ; preds = %7
  %26 = load ptr, ptr %14, align 8, !tbaa !42
  %27 = icmp eq ptr %26, null
  br i1 %27, label %28, label %30

28:                                               ; preds = %25, %7
  %29 = load ptr, ptr %15, align 8, !tbaa !17
  call void @_ZL20maybe_copy_error_msgPKcPPc(ptr noundef @.str.16, ptr noundef %29)
  store i32 3, ptr %8, align 4
  br label %90

30:                                               ; preds = %25
  call void @llvm.lifetime.start.p0(i64 8, ptr %16) #8
  %31 = call ptr @gpr_zalloc(i64 noundef 32)
  store ptr %31, ptr %16, align 8, !tbaa !3
  call void @llvm.lifetime.start.p0(i64 8, ptr %17) #8
  store i64 0, ptr %17, align 8, !tbaa !14
  call void @llvm.lifetime.start.p0(i64 4, ptr %18) #8
  %32 = load ptr, ptr %9, align 8, !tbaa !41
  %33 = load ptr, ptr %15, align 8, !tbaa !17
  %34 = call noundef i32 @_Z30gsec_aead_crypter_nonce_lengthPK17gsec_aead_crypterPmPPc(ptr noundef %32, ptr noundef %17, ptr noundef %33)
  store i32 %34, ptr %18, align 4, !tbaa !26
  %35 = load i32, ptr %18, align 4, !tbaa !26
  %36 = icmp ne i32 %35, 0
  br i1 %36, label %37, label %38

37:                                               ; preds = %30
  br label %84

38:                                               ; preds = %30
  %39 = load i8, ptr %13, align 1, !tbaa !38, !range !21, !noundef !22
  %40 = trunc i8 %39 to i1
  br i1 %40, label %41, label %45

41:                                               ; preds = %38
  %42 = load i8, ptr %11, align 1, !tbaa !38, !range !21, !noundef !22
  %43 = trunc i8 %42 to i1
  %44 = xor i1 %43, true
  br label %48

45:                                               ; preds = %38
  %46 = load i8, ptr %11, align 1, !tbaa !38, !range !21, !noundef !22
  %47 = trunc i8 %46 to i1
  br label %48

48:                                               ; preds = %45, %41
  %49 = phi i1 [ %44, %41 ], [ %47, %45 ]
  %50 = load i64, ptr %17, align 8, !tbaa !14
  %51 = load i64, ptr %10, align 8, !tbaa !14
  %52 = load ptr, ptr %16, align 8, !tbaa !3
  %53 = getelementptr inbounds nuw %struct.alts_iovec_record_protocol, ptr %52, i32 0, i32 0
  %54 = load ptr, ptr %15, align 8, !tbaa !17
  %55 = call noundef i32 @_Z19alts_counter_createbmmPP12alts_counterPPc(i1 noundef zeroext %49, i64 noundef %50, i64 noundef %51, ptr noundef %53, ptr noundef %54)
  store i32 %55, ptr %18, align 4, !tbaa !26
  %56 = load i32, ptr %18, align 4, !tbaa !26
  %57 = icmp ne i32 %56, 0
  br i1 %57, label %58, label %59

58:                                               ; preds = %48
  br label %84

59:                                               ; preds = %48
  %60 = load ptr, ptr %9, align 8, !tbaa !41
  %61 = load ptr, ptr %16, align 8, !tbaa !3
  %62 = getelementptr inbounds nuw %struct.alts_iovec_record_protocol, ptr %61, i32 0, i32 2
  %63 = load ptr, ptr %15, align 8, !tbaa !17
  %64 = call noundef i32 @_Z28gsec_aead_crypter_tag_lengthPK17gsec_aead_crypterPmPPc(ptr noundef %60, ptr noundef %62, ptr noundef %63)
  store i32 %64, ptr %18, align 4, !tbaa !26
  %65 = load i32, ptr %18, align 4, !tbaa !26
  %66 = icmp ne i32 %65, 0
  br i1 %66, label %67, label %68

67:                                               ; preds = %59
  br label %84

68:                                               ; preds = %59
  %69 = load ptr, ptr %9, align 8, !tbaa !41
  %70 = load ptr, ptr %16, align 8, !tbaa !3
  %71 = getelementptr inbounds nuw %struct.alts_iovec_record_protocol, ptr %70, i32 0, i32 1
  store ptr %69, ptr %71, align 8, !tbaa !30
  %72 = load i8, ptr %12, align 1, !tbaa !38, !range !21, !noundef !22
  %73 = trunc i8 %72 to i1
  %74 = load ptr, ptr %16, align 8, !tbaa !3
  %75 = getelementptr inbounds nuw %struct.alts_iovec_record_protocol, ptr %74, i32 0, i32 3
  %76 = zext i1 %73 to i8
  store i8 %76, ptr %75, align 8, !tbaa !20
  %77 = load i8, ptr %13, align 1, !tbaa !38, !range !21, !noundef !22
  %78 = trunc i8 %77 to i1
  %79 = load ptr, ptr %16, align 8, !tbaa !3
  %80 = getelementptr inbounds nuw %struct.alts_iovec_record_protocol, ptr %79, i32 0, i32 4
  %81 = zext i1 %78 to i8
  store i8 %81, ptr %80, align 1, !tbaa !23
  %82 = load ptr, ptr %16, align 8, !tbaa !3
  %83 = load ptr, ptr %14, align 8, !tbaa !42
  store ptr %82, ptr %83, align 8, !tbaa !3
  store i32 0, ptr %8, align 4
  store i32 1, ptr %19, align 4
  br label %89

84:                                               ; preds = %67, %58, %37
  %85 = load ptr, ptr %16, align 8, !tbaa !3
  %86 = getelementptr inbounds nuw %struct.alts_iovec_record_protocol, ptr %85, i32 0, i32 0
  %87 = load ptr, ptr %86, align 8, !tbaa !31
  call void @_Z20alts_counter_destroyP12alts_counter(ptr noundef %87)
  %88 = load ptr, ptr %16, align 8, !tbaa !3
  call void @gpr_free(ptr noundef %88)
  store i32 9, ptr %8, align 4
  store i32 1, ptr %19, align 4
  br label %89

89:                                               ; preds = %84, %68
  call void @llvm.lifetime.end.p0(i64 4, ptr %18) #8
  call void @llvm.lifetime.end.p0(i64 8, ptr %17) #8
  call void @llvm.lifetime.end.p0(i64 8, ptr %16) #8
  br label %90

90:                                               ; preds = %89, %28
  %91 = load i32, ptr %8, align 4
  ret i32 %91
}