; Function Attrs: mustprogress uwtable
define noundef range(i32 0, 10) i32 @_Z33alts_iovec_record_protocol_createP17gsec_aead_cryptermbbbPP26alts_iovec_record_protocolPPc(ptr noundef %0, i64 noundef %1, i1 noundef zeroext %2, i1 noundef zeroext %3, i1 noundef zeroext %4, ptr noundef writeonly %5, ptr noundef %6) local_unnamed_addr #3 {
  %8 = alloca i64, align 8
  %9 = zext i1 %3 to i8
  %10 = zext i1 %4 to i8
  %11 = icmp eq ptr %0, null
  %12 = icmp eq ptr %5, null
  %or.cond = or i1 %11, %12
  br i1 %or.cond, label %13, label %16

13:                                               ; preds = %7
  %.not32 = icmp eq ptr %6, null
  br i1 %.not32, label %_ZL20maybe_copy_error_msgPKcPPc.exit, label %14

14:                                               ; preds = %13
  %15 = tail call ptr @gpr_malloc(i64 noundef 64)
  store ptr %15, ptr %6, align 8, !tbaa !12
  tail call void @llvm.memcpy.p0.p0.i64(ptr noundef nonnull align 1 dereferenceable(64) %15, ptr noundef nonnull align 1 dereferenceable(64) @.str.16, i64 64, i1 false)
  br label %_ZL20maybe_copy_error_msgPKcPPc.exit

16:                                               ; preds = %7
  %17 = tail call ptr @gpr_zalloc(i64 noundef 32)
  call void @llvm.lifetime.start.p0(i64 8, ptr nonnull %8) #11
  store i64 0, ptr %8, align 8, !tbaa !19
  %18 = call noundef i32 @_Z30gsec_aead_crypter_nonce_lengthPK17gsec_aead_crypterPmPPc(ptr noundef nonnull %0, ptr noundef nonnull %8, ptr noundef %6)
  %.not = icmp eq i32 %18, 0
  br i1 %.not, label %19, label %29

19:                                               ; preds = %16
  %spec.select = xor i1 %2, %4
  %20 = load i64, ptr %8, align 8, !tbaa !19
  %21 = call noundef i32 @_Z19alts_counter_createbmmPP12alts_counterPPc(i1 noundef zeroext %spec.select, i64 noundef %20, i64 noundef %1, ptr noundef %17, ptr noundef %6)
  %.not30 = icmp eq i32 %21, 0
  br i1 %.not30, label %22, label %29

22:                                               ; preds = %19
  %23 = getelementptr inbounds nuw i8, ptr %17, i64 16
  %24 = call noundef i32 @_Z28gsec_aead_crypter_tag_lengthPK17gsec_aead_crypterPmPPc(ptr noundef nonnull %0, ptr noundef nonnull %23, ptr noundef %6)
  %.not31 = icmp eq i32 %24, 0
  br i1 %.not31, label %25, label %29

25:                                               ; preds = %22
  %26 = getelementptr inbounds nuw i8, ptr %17, i64 8
  store ptr %0, ptr %26, align 8, !tbaa !25
  %27 = getelementptr inbounds nuw i8, ptr %17, i64 24
  store i8 %9, ptr %27, align 8, !tbaa !14
  %28 = getelementptr inbounds nuw i8, ptr %17, i64 25
  store i8 %10, ptr %28, align 1, !tbaa !17
  store ptr %17, ptr %5, align 8, !tbaa !28
  br label %31

29:                                               ; preds = %22, %19, %16
  %30 = load ptr, ptr %17, align 8, !tbaa !26
  call void @_Z20alts_counter_destroyP12alts_counter(ptr noundef %30)
  call void @gpr_free(ptr noundef nonnull %17)
  br label %31

31:                                               ; preds = %29, %25
  %.1 = phi i32 [ 9, %29 ], [ 0, %25 ]
  call void @llvm.lifetime.end.p0(i64 8, ptr nonnull %8) #11
  br label %_ZL20maybe_copy_error_msgPKcPPc.exit

_ZL20maybe_copy_error_msgPKcPPc.exit:             ; preds = %14, %13, %31
  %.0 = phi i32 [ %.1, %31 ], [ 3, %13 ], [ 3, %14 ]
  ret i32 %.0
}